; Function Attrs: mustprogress nounwind uwtable
define dso_local void @_ZN4node6worker11MessagePort12TriggerAsyncEv(ptr noundef nonnull align 8 dereferenceable(240) %this) local_unnamed_addr #6 align 2 {
entry:
  %state_.i = getelementptr inbounds i8, ptr %this, i64 56
  %0 = load i32, ptr %state_.i, align 8
  %1 = add i32 %0, -1
  %spec.select.i = icmp ult i32 %1, 2
  br i1 %spec.select.i, label %do.end8, label %do.body

do.body:                                          ; preds = %entry
  %async_ = getelementptr inbounds i8, ptr %this, i64 104
  %call2 = tail call i32 @uv_async_send(ptr noundef nonnull %async_) #26
  %cmp.not = icmp eq i32 %call2, 0
  br i1 %cmp.not, label %do.end8, label %do.body6

do.body6:                                         ; preds = %do.body
  tail call void @_ZN4node6AssertERKNS_13AssertionInfoE(ptr noundef nonnull align 8 dereferenceable(24) @_ZZN4node6worker11MessagePort12TriggerAsyncEvE4args) #26
  tail call void @abort() #27
  unreachable

do.end8:                                          ; preds = %do.body, %entry
  ret void
}